Certificate:
    Data:
        Version: 1 (0x0)
        Serial Number: 1 (0x1)
    Signature Algorithm: md5WithRSAEncryption
        Issuer: C=US, ST=CA, O=Open vSwitch, OU=switchca, CN=OVS switchca CA Certificate (2015 Feb 06 04:01:18)
        Validity
            Not Before: Feb  6 12:01:18 2015 GMT
            Not After : Feb  3 12:01:18 2025 GMT
        Subject: C=US, ST=CA, O=Open vSwitch, OU=switchca, CN=OVS switchca CA Certificate (2015 Feb 06 04:01:18)
        Subject Public Key Info:
            Public Key Algorithm: rsaEncryption
                Public-Key: (2048 bit)
                Modulus:
                    00:b4:cf:56:1b:29:6f:df:f4:72:b3:ca:86:f8:99:
                    01:88:5b:25:5d:16:e7:94:1e:c0:54:3e:1b:e6:a0:
                    38:2b:66:c5:e5:b2:db:0f:e3:a8:14:c0:ce:11:52:
                    3f:2d:a7:21:fa:54:70:10:2e:7f:33:66:7f:c8:31:
                    2f:b3:97:cc:0e:29:28:25:f3:f9:58:95:3b:1e:af:
                    2e:76:ca:06:2a:dc:40:38:0b:c9:74:38:88:8e:16:
                    62:d6:74:ed:cc:be:79:4a:ce:c9:e8:05:f7:5f:80:
                    e1:f9:e9:49:17:4d:4a:44:2e:ba:e7:2b:8f:c8:8e:
                    d3:35:fd:0d:5c:ba:78:b7:f9:58:b7:09:d5:0d:47:
                    15:86:c2:58:30:4a:17:02:4f:f6:dd:4f:ad:f5:5c:
                    59:07:78:49:e4:88:5d:b3:fa:28:56:02:77:2e:f7:
                    d8:9a:03:e4:1d:d5:67:c0:40:08:26:e5:3b:2f:92:
                    ba:ba:9c:4c:d9:71:05:e0:4a:03:0c:10:de:a7:18:
                    db:12:8f:0f:7b:63:f6:d2:3d:d6:43:4a:0e:34:b0:
                    39:15:15:d7:45:71:63:97:96:5c:6b:2c:2e:ff:73:
                    19:55:15:89:9f:53:a1:e9:2e:ad:30:64:ce:24:73:
                    03:aa:80:74:ce:e9:af:25:94:9e:e6:90:c7:d7:7f:
                    32:85
                Exponent: 65537 (0x10001)
    Signature Algorithm: md5WithRSAEncryption
         1c:71:be:09:62:25:22:a4:79:da:ed:cf:d3:dd:d4:cb:74:df:
         66:7d:40:22:26:ad:15:07:f4:71:05:9c:cc:54:e7:f9:e5:cf:
         8e:95:12:35:00:67:cc:f9:c9:4b:9d:ce:58:3a:d1:ec:6d:69:
         3b:f7:d4:01:e1:c6:dc:44:79:78:c9:05:5d:2a:b9:7f:84:e1:
         69:d1:f3:a1:a0:b9:04:2e:cd:b2:c3:2a:97:8a:54:9f:53:9e:
         06:70:78:66:10:27:e8:2b:3f:70:43:22:c3:64:1e:11:cf:e0:
         d2:da:0a:5a:e6:16:b8:89:b3:45:99:ee:6c:de:74:d2:d6:3c:
         ab:13:c1:5b:13:63:e2:a0:14:e0:5e:ba:d2:ff:a1:4a:c0:e1:
         d4:0f:71:63:be:15:0d:6b:2e:cf:53:2e:83:d2:ac:a3:cf:94:
         a1:79:d6:e4:54:01:61:cb:bb:4e:df:f6:36:32:ee:5e:83:44:
         bd:80:c3:d9:d6:3b:a7:8b:8b:b6:bb:3c:aa:69:08:09:a7:f0:
         31:b6:e0:83:ce:5b:25:11:97:14:ad:36:3d:97:d6:49:d6:97:
         d1:70:27:27:40:7d:ea:b5:ff:d5:32:0a:5d:f8:3e:62:f3:17:
         9d:d0:03:b7:46:c4:3a:94:fd:0b:4b:72:61:d7:2f:e3:94:f4:
         a5:08:67:2d
-----BEGIN CERTIFICATE-----
MIIDeDCCAmACAQEwDQYJKoZIhvcNAQEEBQAwgYExCzAJBgNVBAYTAlVTMQswCQYD
VQQIEwJDQTEVMBMGA1UEChMMT3BlbiB2U3dpdGNoMREwDwYDVQQLEwhzd2l0Y2hj
YTE7MDkGA1UEAxMyT1ZTIHN3aXRjaGNhIENBIENlcnRpZmljYXRlICgyMDE1IEZl
YiAwNiAwNDowMToxOCkwHhcNMTUwMjA2MTIwMTE4WhcNMjUwMjAzMTIwMTE4WjCB
gTELMAkGA1UEBhMCVVMxCzAJBgNVBAgTAkNBMRUwEwYDVQQKEwxPcGVuIHZTd2l0
Y2gxETAPBgNVBAsTCHN3aXRjaGNhMTswOQYDVQQDEzJPVlMgc3dpdGNoY2EgQ0Eg
Q2VydGlmaWNhdGUgKDIwMTUgRmViIDA2IDA0OjAxOjE4KTCCASIwDQYJKoZIhvcN
AQEBBQADggEPADCCAQoCggEBALTPVhspb9/0crPKhviZAYhbJV0W55QewFQ+G+ag
OCtmxeWy2w/jqBTAzhFSPy2nIfpUcBAufzNmf8gxL7OXzA4pKCXz+ViVOx6vLnbK
BircQDgLyXQ4iI4WYtZ07cy+eUrOyegF91+A4fnpSRdNSkQuuucrj8iO0zX9DVy6
eLf5WLcJ1Q1HFYbCWDBKFwJP9t1PrfVcWQd4SeSIXbP6KFYCdy732JoD5B3VZ8BA
CCblOy+SurqcTNlxBeBKAwwQ3qcY2xKPD3tj9tI91kNKDjSwORUV10VxY5eWXGss
Lv9zGVUViZ9ToekurTBkziRzA6qAdM7pryWUnuaQx9d/MoUCAwEAATANBgkqhkiG
9w0BAQQFAAOCAQEAHHG+CWIlIqR52u3P093Uy3TfZn1AIiatFQf0cQWczFTn+eXP
jpUSNQBnzPnJS53OWDrR7G1pO/fUAeHG3ER5eMkFXSq5f4ThadHzoaC5BC7NssMq
l4pUn1OeBnB4ZhAn6Cs/cEMiw2QeEc/g0toKWuYWuImzRZnubN500tY8qxPBWxNj
4qAU4F660v+hSsDh1A9xY74VDWsuz1Mug9Kso8+UoXnW5FQBYcu7Tt/2NjLuXoNE
vYDD2dY7p4uLtrs8qmkICafwMbbgg85bJRGXFK02PZfWSdaX0XAnJ0B96rX/1TIK
Xfg+YvMXndADt0bEOpT9C0tyYdcv45T0pQhnLQ==
-----END CERTIFICATE-----
