Certificate:
    Data:
        Version: 1 (0x0)
        Serial Number: 2 (0x2)
    Signature Algorithm: md5WithRSAEncryption
        Issuer: C=US, ST=CA, O=Open vSwitch, OU=switchca, CN=OVS switchca CA Certificate (2015 Feb 06 04:01:18)
        Validity
            Not Before: Feb  6 12:06:12 2015 GMT
            Not After : Feb  3 12:06:12 2025 GMT
        Subject: C=US, ST=CA, O=Open vSwitch, OU=Open vSwitch certifier, CN=qfx id:d0a1696a-4a37-4e1e-ac5e-3c2d40354609
        Subject Public Key Info:
            Public Key Algorithm: rsaEncryption
                Public-Key: (2048 bit)
                Modulus:
                    00:a7:a3:2c:4a:76:c0:40:cc:ef:49:f1:3d:14:85:
                    0a:3a:98:1f:53:ed:58:90:66:88:fc:92:25:19:47:
                    fe:07:a6:aa:7b:e0:a4:33:a9:98:24:0f:1b:31:fa:
                    54:6d:07:9a:72:2a:40:6a:ff:93:6e:66:39:ba:56:
                    f6:fc:18:2e:55:f5:e2:7a:41:1b:d9:d1:6d:91:3f:
                    bc:db:62:ee:a0:02:c8:31:b7:d9:da:d9:e6:f3:9d:
                    bc:54:43:c5:17:5d:af:a9:9b:92:49:e5:2a:7d:86:
                    15:b1:3d:1b:a0:82:e2:2b:ed:55:65:2b:68:19:51:
                    9c:0a:05:1c:c4:b9:a9:7d:c2:5f:d2:44:35:7c:01:
                    ac:f5:a1:08:1a:8e:73:63:a7:8a:be:99:92:71:30:
                    db:4c:8a:22:b1:ba:75:12:62:74:6b:98:bc:28:7d:
                    79:4a:aa:db:11:28:94:15:73:7b:4f:b3:0f:76:7d:
                    b7:10:1c:bf:4f:00:bd:1c:66:9e:28:f2:89:29:4b:
                    a8:4a:df:d8:a2:53:0e:26:c0:12:46:83:a9:84:a5:
                    b2:74:e6:6c:da:4e:e1:2c:76:df:55:44:14:13:f7:
                    c4:63:13:86:32:b6:c2:ae:9c:f3:2a:99:3a:aa:98:
                    9b:0b:2d:6e:ed:5d:82:bf:0b:8e:57:13:f4:6f:4e:
                    bf:4b
                Exponent: 65537 (0x10001)
    Signature Algorithm: md5WithRSAEncryption
         b3:97:22:5b:7c:97:2b:ae:eb:05:8c:bd:81:11:5e:48:42:d5:
         ca:61:c4:28:f6:45:67:79:9b:29:49:73:29:8a:83:c0:fc:52:
         b7:1f:46:d2:5b:c6:30:65:7e:c7:2a:e7:39:18:2d:ad:91:ae:
         1c:8b:1e:05:53:a2:26:73:0d:c6:00:45:14:97:e6:2f:36:61:
         aa:ac:f0:30:dc:47:cd:01:be:d5:96:c0:79:d0:e6:9c:b3:8b:
         c2:30:b8:49:9e:58:13:65:bd:72:f4:dd:ef:24:53:d6:f2:c9:
         a6:03:da:63:2e:32:1f:d8:d5:31:ce:6f:ab:05:11:9c:bd:07:
         63:bd:52:a7:2c:3b:ec:19:ef:c3:bc:06:ae:5b:1c:3a:86:68:
         2d:2c:4c:72:71:d9:37:28:3a:2a:da:9b:23:20:34:35:de:10:
         63:c6:6d:af:40:83:df:5c:92:8a:75:ae:50:59:eb:ec:05:f3:
         57:21:50:44:64:69:1b:c1:9f:63:0b:2b:bc:1e:3b:8d:a9:4b:
         f1:15:53:21:4a:23:11:28:13:eb:96:89:95:f5:f5:19:fa:d2:
         fc:8f:35:01:d5:88:8f:cd:5b:3e:ff:ec:43:30:c5:ee:e9:aa:
         3f:fe:64:b7:db:e7:87:3b:90:96:3c:44:ab:d1:4e:45:9d:76:
         37:bd:a7:57
-----BEGIN CERTIFICATE-----
MIIDfzCCAmcCAQIwDQYJKoZIhvcNAQEEBQAwgYExCzAJBgNVBAYTAlVTMQswCQYD
VQQIEwJDQTEVMBMGA1UEChMMT3BlbiB2U3dpdGNoMREwDwYDVQQLEwhzd2l0Y2hj
YTE7MDkGA1UEAxMyT1ZTIHN3aXRjaGNhIENBIENlcnRpZmljYXRlICgyMDE1IEZl
YiAwNiAwNDowMToxOCkwHhcNMTUwMjA2MTIwNjEyWhcNMjUwMjAzMTIwNjEyWjCB
iDELMAkGA1UEBhMCVVMxCzAJBgNVBAgTAkNBMRUwEwYDVQQKEwxPcGVuIHZTd2l0
Y2gxHzAdBgNVBAsTFk9wZW4gdlN3aXRjaCBjZXJ0aWZpZXIxNDAyBgNVBAMTK3Fm
eCBpZDpkMGExNjk2YS00YTM3LTRlMWUtYWM1ZS0zYzJkNDAzNTQ2MDkwggEiMA0G
CSqGSIb3DQEBAQUAA4IBDwAwggEKAoIBAQCnoyxKdsBAzO9J8T0UhQo6mB9T7ViQ
Zoj8kiUZR/4Hpqp74KQzqZgkDxsx+lRtB5pyKkBq/5NuZjm6Vvb8GC5V9eJ6QRvZ
0W2RP7zbYu6gAsgxt9na2ebznbxUQ8UXXa+pm5JJ5Sp9hhWxPRugguIr7VVlK2gZ
UZwKBRzEual9wl/SRDV8Aaz1oQgajnNjp4q+mZJxMNtMiiKxunUSYnRrmLwofXlK
qtsRKJQVc3tPsw92fbcQHL9PAL0cZp4o8okpS6hK39iiUw4mwBJGg6mEpbJ05mza
TuEsdt9VRBQT98RjE4YytsKunPMqmTqqmJsLLW7tXYK/C45XE/RvTr9LAgMBAAEw
DQYJKoZIhvcNAQEEBQADggEBALOXIlt8lyuu6wWMvYERXkhC1cphxCj2RWd5mylJ
cymKg8D8UrcfRtJbxjBlfscq5zkYLa2RrhyLHgVToiZzDcYARRSX5i82Yaqs8DDc
R80BvtWWwHnQ5pyzi8IwuEmeWBNlvXL03e8kU9byyaYD2mMuMh/Y1THOb6sFEZy9
B2O9UqcsO+wZ78O8Bq5bHDqGaC0sTHJx2TcoOiramyMgNDXeEGPGba9Ag99ckop1
rlBZ6+wF81chUERkaRvBn2MLK7weO42pS/EVUyFKIxEoE+uWiZX19Rn60vyPNQHV
iI/NWz7/7EMwxe7pqj/+ZLfb54c7kJY8RKvRTkWddje9p1c=
-----END CERTIFICATE-----
