Certificate:
    Data:
        Version: 1 (0x0)
        Serial Number: 12154370386056043314 (0xa8acff783165db32)
    Signature Algorithm: sha1WithRSAEncryption
        Issuer: C=US, ST=CA, L=Palo Alto, O=Open vSwitch, OU=Open vSwitch certifier, CN=tor-agent id:ca318f26-012b-4170-bbbd-09ba661fd557
        Validity
            Not Before: Feb  9 08:16:10 2015 GMT
            Not After : Feb  6 08:16:10 2025 GMT
        Subject: C=US, ST=CA, L=Palo Alto, O=Open vSwitch, OU=Open vSwitch certifier, CN=tor-agent id:ca318f26-012b-4170-bbbd-09ba661fd557
        Subject Public Key Info:
            Public Key Algorithm: rsaEncryption
                Public-Key: (2048 bit)
                Modulus:
                    00:ea:c9:f4:6b:91:74:98:86:f7:a5:b5:28:21:12:
                    11:1b:1e:eb:05:e6:d8:a8:7e:48:c6:21:c1:5c:14:
                    a3:af:c7:11:c9:91:50:93:e8:90:84:9d:db:08:b6:
                    0a:86:ca:d7:ae:b3:06:d0:c6:63:96:61:b0:86:a9:
                    bd:e0:b6:e4:53:86:6f:32:84:f5:c9:37:c7:c9:f8:
                    1c:15:b2:e7:05:46:38:86:b7:dd:61:bf:25:7e:70:
                    7d:9d:a8:21:93:a8:f1:63:b1:af:04:fa:dd:d9:1a:
                    ff:5d:be:74:b9:8d:3d:fe:45:bf:07:27:0a:43:d5:
                    b1:00:e6:e9:26:7f:7c:94:9b:2d:6a:f5:24:77:b4:
                    41:57:14:13:61:02:6d:fe:47:ee:91:f4:0c:32:06:
                    c7:11:8c:c9:ac:88:cf:99:32:27:ad:9d:4f:e3:e2:
                    87:f0:2e:3f:19:c4:f8:f8:1a:25:22:cc:b4:f3:d1:
                    88:e4:fc:34:22:8f:dd:07:43:45:fd:ed:4d:fd:d6:
                    aa:7a:00:2e:bd:29:60:2d:f6:70:68:fb:82:a7:f1:
                    ff:78:c6:ac:97:2b:e8:96:0a:f6:37:b4:e2:b2:16:
                    62:d2:13:60:7e:ee:fc:dc:ec:6e:f5:6d:a4:0a:9e:
                    9c:24:dd:44:21:14:f2:7f:5c:94:51:dd:b9:7b:3a:
                    4a:eb
                Exponent: 65537 (0x10001)
    Signature Algorithm: sha1WithRSAEncryption
         d0:f9:4b:f0:04:cb:f9:bc:61:6e:f6:a4:e6:85:08:84:7c:6c:
         f6:19:20:0d:b3:ed:11:80:3b:aa:87:bd:53:af:50:81:34:01:
         c0:5d:76:d9:02:93:ab:1d:71:b9:19:87:1d:91:6a:40:31:ce:
         b2:0d:6a:c1:08:0a:c2:28:b4:3c:a4:c6:6c:7b:f7:06:87:6c:
         2a:0e:68:13:2e:f3:71:3f:f7:16:73:7c:ba:02:57:4d:81:55:
         c2:49:e6:81:96:52:fc:43:ca:2a:d4:81:18:19:b4:92:b0:49:
         72:44:a3:27:66:d8:52:8b:ab:a5:90:b0:6c:d7:68:f3:2a:bf:
         9d:6e:eb:a4:f8:dd:14:46:b8:96:fb:1f:0b:d8:09:86:f0:5d:
         23:31:28:dc:ca:d5:6b:95:b0:a0:8b:a0:9d:44:2d:c6:8f:f1:
         7e:65:f0:df:4a:3c:65:38:ef:ef:30:29:72:da:e9:75:e3:38:
         3a:3e:eb:99:b3:2a:87:05:38:2f:6d:8f:0d:66:69:7b:e0:43:
         a0:8e:f4:2b:c1:43:89:d3:39:a0:68:c2:cb:e4:a7:8d:97:56:
         59:78:a1:37:25:74:94:dc:c4:a8:d3:f6:5c:e8:c6:51:8d:d9:
         b7:4c:cb:5b:9f:3a:ab:f5:1f:59:f2:79:b7:0f:32:ae:20:c8:
         c3:0a:a1:6b
-----BEGIN CERTIFICATE-----
MIIDwjCCAqoCCQCorP94MWXbMjANBgkqhkiG9w0BAQUFADCBojELMAkGA1UEBhMC
VVMxCzAJBgNVBAgTAkNBMRIwEAYDVQQHEwlQYWxvIEFsdG8xFTATBgNVBAoTDE9w
ZW4gdlN3aXRjaDEfMB0GA1UECxMWT3BlbiB2U3dpdGNoIGNlcnRpZmllcjE6MDgG
A1UEAxMxdG9yLWFnZW50IGlkOmNhMzE4ZjI2LTAxMmItNDE3MC1iYmJkLTA5YmE2
NjFmZDU1NzAeFw0xNTAyMDkwODE2MTBaFw0yNTAyMDYwODE2MTBaMIGiMQswCQYD
VQQGEwJVUzELMAkGA1UECBMCQ0ExEjAQBgNVBAcTCVBhbG8gQWx0bzEVMBMGA1UE
ChMMT3BlbiB2U3dpdGNoMR8wHQYDVQQLExZPcGVuIHZTd2l0Y2ggY2VydGlmaWVy
MTowOAYDVQQDEzF0b3ItYWdlbnQgaWQ6Y2EzMThmMjYtMDEyYi00MTcwLWJiYmQt
MDliYTY2MWZkNTU3MIIBIjANBgkqhkiG9w0BAQEFAAOCAQ8AMIIBCgKCAQEA6sn0
a5F0mIb3pbUoIRIRGx7rBebYqH5IxiHBXBSjr8cRyZFQk+iQhJ3bCLYKhsrXrrMG
0MZjlmGwhqm94LbkU4ZvMoT1yTfHyfgcFbLnBUY4hrfdYb8lfnB9naghk6jxY7Gv
BPrd2Rr/Xb50uY09/kW/BycKQ9WxAObpJn98lJstavUkd7RBVxQTYQJt/kfukfQM
MgbHEYzJrIjPmTInrZ1P4+KH8C4/GcT4+BolIsy089GI5Pw0Io/dB0NF/e1N/daq
egAuvSlgLfZwaPuCp/H/eMaslyvolgr2N7TishZi0hNgfu783Oxu9W2kCp6cJN1E
IRTyf1yUUd25ezpK6wIDAQABMA0GCSqGSIb3DQEBBQUAA4IBAQDQ+UvwBMv5vGFu
9qTmhQiEfGz2GSANs+0RgDuqh71Tr1CBNAHAXXbZApOrHXG5GYcdkWpAMc6yDWrB
CArCKLQ8pMZse/cGh2wqDmgTLvNxP/cWc3y6AldNgVXCSeaBllL8Q8oq1IEYGbSS
sElyRKMnZthSi6ulkLBs12jzKr+dbuuk+N0URriW+x8L2AmG8F0jMSjcytVrlbCg
i6CdRC3Gj/F+ZfDfSjxlOO/vMCly2ul14zg6PuuZsyqHBTgvbY8NZml74EOgjvQr
wUOJ0zmgaMLL5KeNl1ZZeKE3JXSU3MSo0/Zc6MZRjdm3TMtbnzqr9R9Z8nm3DzKu
IMjDCqFr
-----END CERTIFICATE-----
